; Function Attrs: mustprogress nounwind uwtable
define hidden void @_ZN18SafeThreadsListPtr19acquire_stable_listEv(ptr noundef nonnull align 8 dereferenceable(26) %0) local_unnamed_addr #1 align 2 {
  %2 = getelementptr inbounds i8, ptr %0, i64 25
  store i8 1, ptr %2, align 1
  %3 = getelementptr inbounds i8, ptr %0, i64 8
  %4 = load ptr, ptr %3, align 8
  %5 = getelementptr inbounds i8, ptr %4, i64 392
  %6 = load ptr, ptr %5, align 8
  store ptr %6, ptr %0, align 8
  store ptr %0, ptr %5, align 8
  %7 = load ptr, ptr %3, align 8
  %8 = getelementptr inbounds i8, ptr %7, i64 384
  %9 = load volatile ptr, ptr %8, align 8
  tail call void asm sideeffect "", "~{memory},~{dirflag},~{fpsr},~{flags}"() #15, !srcloc !6
  %10 = icmp eq ptr %9, null
  %11 = load ptr, ptr %0, align 8
  %12 = icmp eq ptr %11, null
  %or.cond = select i1 %10, i1 %12, i1 false
  br i1 %or.cond, label %.preheader, label %27

.preheader:                                       ; preds = %1, %.preheader.backedge
  %13 = load volatile ptr, ptr @_ZN17ThreadsSMRSupport17_java_thread_listE, align 8
  tail call void asm sideeffect "", "~{memory},~{dirflag},~{fpsr},~{flags}"() #15, !srcloc !6
  %14 = ptrtoint ptr %13 to i64
  %15 = or i64 %14, 1
  %16 = inttoptr i64 %15 to ptr
  %17 = load ptr, ptr %3, align 8
  %18 = getelementptr inbounds i8, ptr %17, i64 384
  %19 = tail call ptr asm sideeffect "xchgq ($2), $0", "=r,0,r,~{memory},~{dirflag},~{fpsr},~{flags}"(ptr nonnull %16, ptr nonnull %18) #15, !srcloc !7
  %20 = load volatile ptr, ptr @_ZN17ThreadsSMRSupport17_java_thread_listE, align 8
  tail call void asm sideeffect "", "~{memory},~{dirflag},~{fpsr},~{flags}"() #15, !srcloc !6
  %.not.i = icmp eq ptr %20, %13
  br i1 %.not.i, label %21, label %.preheader.backedge

21:                                               ; preds = %.preheader
  %22 = load ptr, ptr %3, align 8
  %23 = getelementptr inbounds i8, ptr %22, i64 384
  %24 = tail call noundef ptr asm sideeffect "lock cmpxchgq $1,($3)", "={ax},r,{ax},r,~{cc},~{memory},~{dirflag},~{fpsr},~{flags}"(ptr %13, ptr nonnull %16, ptr nonnull %23) #15, !srcloc !8
  %25 = icmp eq ptr %24, %16
  br i1 %25, label %_ZN18SafeThreadsListPtr29acquire_stable_list_fast_pathEv.exit, label %.preheader.backedge

.preheader.backedge:                              ; preds = %21, %.preheader
  br label %.preheader, !llvm.loop !9

_ZN18SafeThreadsListPtr29acquire_stable_list_fast_pathEv.exit: ; preds = %21
  %26 = getelementptr inbounds i8, ptr %0, i64 16
  store ptr %13, ptr %26, align 8
  br label %28

27:                                               ; preds = %1
  tail call void @_ZN18SafeThreadsListPtr31acquire_stable_list_nested_pathEv(ptr noundef nonnull align 8 dereferenceable(26) %0)
  br label %28

28:                                               ; preds = %27, %_ZN18SafeThreadsListPtr29acquire_stable_list_fast_pathEv.exit
  ret void
}